target datalayout = "e-m:e-p270:32:32-p271:32:32-p272:64:64-i64:64-i128:128-f80:128-n8:16:32:64-S128"
target triple = "x86_64-pc-linux-gnu"

%struct.ident_t = type { i32, i32, i32, i32, ptr }
%"class.ncnn::Mat" = type { ptr, ptr, i64, i32, ptr, i32, i32, i32, i32, i32, i64 }

@1 = private unnamed_addr constant %struct.ident_t { i32 0, i32 514, i32 0, i32 22, ptr @0 }, align 8

; Function Attrs: alwaysinline mustprogress nounwind uwtable
define internal void @_ZN4ncnnL8fastFreeEPv(ptr noundef %0) #5 {
  %2 = alloca ptr, align 8
  store ptr %0, ptr %2, align 8, !tbaa !60
  %3 = load ptr, ptr %2, align 8, !tbaa !60
  %4 = icmp ne ptr %3, null
  br i1 %4, label %5, label %7

5:                                                ; preds = %1
  %6 = load ptr, ptr %2, align 8, !tbaa !60
  call void @free(ptr noundef %6) #8
  br label %7

7:                                                ; preds = %5, %1
  ret void
}

; Function Attrs: alwaysinline mustprogress nounwind uwtable
define internal noundef i64 @_ZN4ncnnL9alignSizeEmi(i64 noundef %0, i32 noundef %1) #5 {
  %3 = alloca i64, align 8
  %4 = alloca i32, align 4
  store i64 %0, ptr %3, align 8, !tbaa !69
  store i32 %1, ptr %4, align 4, !tbaa !13
  %5 = load i64, ptr %3, align 8, !tbaa !69
  %6 = load i32, ptr %4, align 4, !tbaa !13
  %7 = sext i32 %6 to i64
  %8 = add i64 %5, %7
  %9 = sub i64 %8, 1
  %10 = load i32, ptr %4, align 4, !tbaa !13
  %11 = sub nsw i32 0, %10
  %12 = sext i32 %11 to i64
  %13 = and i64 %9, %12
  ret i64 %13
}

; Function Attrs: alwaysinline mustprogress uwtable
define linkonce_odr hidden void @_ZN4ncnn3Mat7releaseEv(ptr noundef nonnull align 8 dereferenceable(72) %0) #9 comdat align 2 {
  %2 = alloca ptr, align 8
  %3 = alloca i32, align 4
  %4 = alloca i32, align 4
  store ptr %0, ptr %2, align 8, !tbaa !9
  %5 = load ptr, ptr %2, align 8
  %6 = getelementptr inbounds nuw %"class.ncnn::Mat", ptr %5, i32 0, i32 1
  %7 = load ptr, ptr %6, align 8, !tbaa !71
  %8 = icmp ne ptr %7, null
  br i1 %8, label %9, label %32

9:                                                ; preds = %1
  %10 = getelementptr inbounds nuw %"class.ncnn::Mat", ptr %5, i32 0, i32 1
  %11 = load ptr, ptr %10, align 8, !tbaa !71
  store i32 -1, ptr %3, align 4, !tbaa !13
  %12 = load i32, ptr %3, align 4
  %13 = atomicrmw add ptr %11, i32 %12 acq_rel, align 4
  store i32 %13, ptr %4, align 4
  %14 = load i32, ptr %4, align 4, !tbaa !13
  %15 = icmp eq i32 %14, 1
  br i1 %15, label %16, label %32

16:                                               ; preds = %9
  %17 = getelementptr inbounds nuw %"class.ncnn::Mat", ptr %5, i32 0, i32 4
  %18 = load ptr, ptr %17, align 8, !tbaa !58
  %19 = icmp ne ptr %18, null
  br i1 %19, label %20, label %28

20:                                               ; preds = %16
  %21 = getelementptr inbounds nuw %"class.ncnn::Mat", ptr %5, i32 0, i32 4
  %22 = load ptr, ptr %21, align 8, !tbaa !58
  %23 = getelementptr inbounds nuw %"class.ncnn::Mat", ptr %5, i32 0, i32 0
  %24 = load ptr, ptr %23, align 8, !tbaa !56
  %25 = load ptr, ptr %22, align 8, !tbaa !42
  %26 = getelementptr inbounds ptr, ptr %25, i64 3
  %27 = load ptr, ptr %26, align 8
  call void %27(ptr noundef nonnull align 8 dereferenceable(8) %22, ptr noundef %24)
  br label %31

28:                                               ; preds = %16
  %29 = getelementptr inbounds nuw %"class.ncnn::Mat", ptr %5, i32 0, i32 0
  %30 = load ptr, ptr %29, align 8, !tbaa !56
  call void @_ZN4ncnnL8fastFreeEPv(ptr noundef %30)
  br label %31

31:                                               ; preds = %28, %20
  br label %32

32:                                               ; preds = %31, %9, %1
  %33 = getelementptr inbounds nuw %"class.ncnn::Mat", ptr %5, i32 0, i32 0
  store ptr null, ptr %33, align 8, !tbaa !56
  %34 = getelementptr inbounds nuw %"class.ncnn::Mat", ptr %5, i32 0, i32 2
  store i64 0, ptr %34, align 8, !tbaa !45
  %35 = getelementptr inbounds nuw %"class.ncnn::Mat", ptr %5, i32 0, i32 3
  store i32 0, ptr %35, align 8, !tbaa !23
  %36 = getelementptr inbounds nuw %"class.ncnn::Mat", ptr %5, i32 0, i32 5
  store i32 0, ptr %36, align 8, !tbaa !59
  %37 = getelementptr inbounds nuw %"class.ncnn::Mat", ptr %5, i32 0, i32 6
  store i32 0, ptr %37, align 4, !tbaa !15
  %38 = getelementptr inbounds nuw %"class.ncnn::Mat", ptr %5, i32 0, i32 7
  store i32 0, ptr %38, align 8, !tbaa !20
  %39 = getelementptr inbounds nuw %"class.ncnn::Mat", ptr %5, i32 0, i32 8
  store i32 0, ptr %39, align 4, !tbaa !21
  %40 = getelementptr inbounds nuw %"class.ncnn::Mat", ptr %5, i32 0, i32 9
  store i32 0, ptr %40, align 8, !tbaa !22
  %41 = getelementptr inbounds nuw %"class.ncnn::Mat", ptr %5, i32 0, i32 10
  store i64 0, ptr %41, align 8, !tbaa !57
  %42 = getelementptr inbounds nuw %"class.ncnn::Mat", ptr %5, i32 0, i32 1
  store ptr null, ptr %42, align 8, !tbaa !71
  ret void
}

; Function Attrs: alwaysinline mustprogress uwtable
define linkonce_odr hidden void @_ZN4ncnn3MatC2EiiiPvmiPNS_9AllocatorE(ptr noundef nonnull align 8 dereferenceable(72) %0, i32 noundef %1, i32 noundef %2, i32 noundef %3, ptr noundef %4, i64 noundef %5, i32 noundef %6, ptr noundef %7) unnamed_addr #9 comdat align 2 {
  %9 = alloca ptr, align 8
  %10 = alloca i32, align 4
  %11 = alloca i32, align 4
  %12 = alloca i32, align 4
  %13 = alloca ptr, align 8
  %14 = alloca i64, align 8
  %15 = alloca i32, align 4
  %16 = alloca ptr, align 8
  store ptr %0, ptr %9, align 8, !tbaa !9
  store i32 %1, ptr %10, align 4, !tbaa !13
  store i32 %2, ptr %11, align 4, !tbaa !13
  store i32 %3, ptr %12, align 4, !tbaa !13
  store ptr %4, ptr %13, align 8, !tbaa !60
  store i64 %5, ptr %14, align 8, !tbaa !69
  store i32 %6, ptr %15, align 4, !tbaa !13
  store ptr %7, ptr %16, align 8, !tbaa !70
  %17 = load ptr, ptr %9, align 8
  %18 = getelementptr inbounds nuw %"class.ncnn::Mat", ptr %17, i32 0, i32 0
  %19 = load ptr, ptr %13, align 8, !tbaa !60
  store ptr %19, ptr %18, align 8, !tbaa !56
  %20 = getelementptr inbounds nuw %"class.ncnn::Mat", ptr %17, i32 0, i32 1
  store ptr null, ptr %20, align 8, !tbaa !71
  %21 = getelementptr inbounds nuw %"class.ncnn::Mat", ptr %17, i32 0, i32 2
  %22 = load i64, ptr %14, align 8, !tbaa !69
  store i64 %22, ptr %21, align 8, !tbaa !45
  %23 = getelementptr inbounds nuw %"class.ncnn::Mat", ptr %17, i32 0, i32 3
  %24 = load i32, ptr %15, align 4, !tbaa !13
  store i32 %24, ptr %23, align 8, !tbaa !23
  %25 = getelementptr inbounds nuw %"class.ncnn::Mat", ptr %17, i32 0, i32 4
  %26 = load ptr, ptr %16, align 8, !tbaa !70
  store ptr %26, ptr %25, align 8, !tbaa !58
  %27 = getelementptr inbounds nuw %"class.ncnn::Mat", ptr %17, i32 0, i32 5
  store i32 3, ptr %27, align 8, !tbaa !59
  %28 = getelementptr inbounds nuw %"class.ncnn::Mat", ptr %17, i32 0, i32 6
  %29 = load i32, ptr %10, align 4, !tbaa !13
  store i32 %29, ptr %28, align 4, !tbaa !15
  %30 = getelementptr inbounds nuw %"class.ncnn::Mat", ptr %17, i32 0, i32 7
  %31 = load i32, ptr %11, align 4, !tbaa !13
  store i32 %31, ptr %30, align 8, !tbaa !20
  %32 = getelementptr inbounds nuw %"class.ncnn::Mat", ptr %17, i32 0, i32 8
  store i32 1, ptr %32, align 4, !tbaa !21
  %33 = getelementptr inbounds nuw %"class.ncnn::Mat", ptr %17, i32 0, i32 9
  %34 = load i32, ptr %12, align 4, !tbaa !13
  store i32 %34, ptr %33, align 8, !tbaa !22
  %35 = getelementptr inbounds nuw %"class.ncnn::Mat", ptr %17, i32 0, i32 6
  %36 = load i32, ptr %35, align 4, !tbaa !15
  %37 = sext i32 %36 to i64
  %38 = getelementptr inbounds nuw %"class.ncnn::Mat", ptr %17, i32 0, i32 7
  %39 = load i32, ptr %38, align 8, !tbaa !20
  %40 = sext i32 %39 to i64
  %41 = mul i64 %37, %40
  %42 = getelementptr inbounds nuw %"class.ncnn::Mat", ptr %17, i32 0, i32 2
  %43 = load i64, ptr %42, align 8, !tbaa !45
  %44 = mul i64 %41, %43
  %45 = call noundef i64 @_ZN4ncnnL9alignSizeEmi(i64 noundef %44, i32 noundef 16)
  %46 = getelementptr inbounds nuw %"class.ncnn::Mat", ptr %17, i32 0, i32 2
  %47 = load i64, ptr %46, align 8, !tbaa !45
  %48 = udiv i64 %45, %47
  %49 = getelementptr inbounds nuw %"class.ncnn::Mat", ptr %17, i32 0, i32 10
  store i64 %48, ptr %49, align 8, !tbaa !57
  ret void
}

; Function Attrs: noinline noreturn nounwind uwtable
define linkonce_odr hidden void @__clang_call_terminate(ptr noundef %0) #10 comdat {
  %2 = call ptr @__cxa_begin_catch(ptr %0) #8
  call void @_ZSt9terminatev() #20
  unreachable
}

; Function Attrs: alwaysinline mustprogress nounwind uwtable
define linkonce_odr hidden void @_ZN4ncnn3MatD2Ev(ptr noundef nonnull align 8 dereferenceable(72) %0) unnamed_addr #5 comdat align 2 personality ptr @__gxx_personality_v0 {
  %2 = alloca ptr, align 8
  store ptr %0, ptr %2, align 8, !tbaa !9
  %3 = load ptr, ptr %2, align 8
  invoke void @_ZN4ncnn3Mat7releaseEv(ptr noundef nonnull align 8 dereferenceable(72) %3)
          to label %4 unwind label %5

4:                                                ; preds = %1
  ret void

5:                                                ; preds = %1
  %6 = landingpad { ptr, i32 }
          catch ptr null
  %7 = extractvalue { ptr, i32 } %6, 0
  call void @__clang_call_terminate(ptr %7) #20
  unreachable
}

; Function Attrs: alwaysinline mustprogress nounwind uwtable
define linkonce_odr hidden noundef ptr @_ZN4ncnn3MatcvPT_IaEEv(ptr noundef nonnull align 8 dereferenceable(72) %0) #5 comdat align 2 {
  %2 = alloca ptr, align 8
  store ptr %0, ptr %2, align 8, !tbaa !9
  %3 = load ptr, ptr %2, align 8
  %4 = getelementptr inbounds nuw %"class.ncnn::Mat", ptr %3, i32 0, i32 0
  %5 = load ptr, ptr %4, align 8, !tbaa !56
  ret ptr %5
}

; Function Attrs: alwaysinline mustprogress uwtable
define linkonce_odr hidden void @_ZN4ncnn3Mat7channelEi(ptr dead_on_unwind noalias writable sret(%"class.ncnn::Mat") align 8 %0, ptr noundef nonnull align 8 dereferenceable(72) %1, i32 noundef %2) #9 comdat align 2 {
  %4 = alloca ptr, align 8
  %5 = alloca ptr, align 8
  %6 = alloca i32, align 4
  %7 = alloca i1, align 1
  store ptr %0, ptr %4, align 8
  store ptr %1, ptr %5, align 8, !tbaa !9
  store i32 %2, ptr %6, align 4, !tbaa !13
  %8 = load ptr, ptr %5, align 8
  store i1 false, ptr %7, align 1
  %9 = getelementptr inbounds nuw %"class.ncnn::Mat", ptr %8, i32 0, i32 6
  %10 = load i32, ptr %9, align 4, !tbaa !15
  %11 = getelementptr inbounds nuw %"class.ncnn::Mat", ptr %8, i32 0, i32 7
  %12 = load i32, ptr %11, align 8, !tbaa !20
  %13 = getelementptr inbounds nuw %"class.ncnn::Mat", ptr %8, i32 0, i32 8
  %14 = load i32, ptr %13, align 4, !tbaa !21
  %15 = getelementptr inbounds nuw %"class.ncnn::Mat", ptr %8, i32 0, i32 0
  %16 = load ptr, ptr %15, align 8, !tbaa !56
  %17 = getelementptr inbounds nuw %"class.ncnn::Mat", ptr %8, i32 0, i32 10
  %18 = load i64, ptr %17, align 8, !tbaa !57
  %19 = load i32, ptr %6, align 4, !tbaa !13
  %20 = sext i32 %19 to i64
  %21 = mul i64 %18, %20
  %22 = getelementptr inbounds nuw %"class.ncnn::Mat", ptr %8, i32 0, i32 2
  %23 = load i64, ptr %22, align 8, !tbaa !45
  %24 = mul i64 %21, %23
  %25 = getelementptr inbounds nuw i8, ptr %16, i64 %24
  %26 = getelementptr inbounds nuw %"class.ncnn::Mat", ptr %8, i32 0, i32 2
  %27 = load i64, ptr %26, align 8, !tbaa !45
  %28 = getelementptr inbounds nuw %"class.ncnn::Mat", ptr %8, i32 0, i32 3
  %29 = load i32, ptr %28, align 8, !tbaa !23
  %30 = getelementptr inbounds nuw %"class.ncnn::Mat", ptr %8, i32 0, i32 4
  %31 = load ptr, ptr %30, align 8, !tbaa !58
  call void @_ZN4ncnn3MatC2EiiiPvmiPNS_9AllocatorE(ptr noundef nonnull align 8 dereferenceable(72) %0, i32 noundef %10, i32 noundef %12, i32 noundef %14, ptr noundef %25, i64 noundef %27, i32 noundef %29, ptr noundef %31)
  %32 = getelementptr inbounds nuw %"class.ncnn::Mat", ptr %8, i32 0, i32 5
  %33 = load i32, ptr %32, align 8, !tbaa !59
  %34 = sub nsw i32 %33, 1
  %35 = getelementptr inbounds nuw %"class.ncnn::Mat", ptr %0, i32 0, i32 5
  store i32 %34, ptr %35, align 8, !tbaa !59
  %36 = getelementptr inbounds nuw %"class.ncnn::Mat", ptr %8, i32 0, i32 5
  %37 = load i32, ptr %36, align 8, !tbaa !59
  %38 = icmp eq i32 %37, 4
  br i1 %38, label %39, label %48

39:                                               ; preds = %3
  %40 = getelementptr inbounds nuw %"class.ncnn::Mat", ptr %8, i32 0, i32 6
  %41 = load i32, ptr %40, align 4, !tbaa !15
  %42 = sext i32 %41 to i64
  %43 = getelementptr inbounds nuw %"class.ncnn::Mat", ptr %8, i32 0, i32 7
  %44 = load i32, ptr %43, align 8, !tbaa !20
  %45 = sext i32 %44 to i64
  %46 = mul i64 %42, %45
  %47 = getelementptr inbounds nuw %"class.ncnn::Mat", ptr %0, i32 0, i32 10
  store i64 %46, ptr %47, align 8, !tbaa !57
  br label %48

48:                                               ; preds = %39, %3
  store i1 true, ptr %7, align 1
  %49 = load i1, ptr %7, align 1
  br i1 %49, label %51, label %50

50:                                               ; preds = %48
  call void @_ZN4ncnn3MatD2Ev(ptr noundef nonnull align 8 dereferenceable(72) %0) #8
  br label %51

51:                                               ; preds = %50, %48
  ret void
}

; Function Attrs: alwaysinline norecurse nounwind uwtable
define internal void @_ZNK4ncnn15ReLU_x86_avx51220forward_inplace_int8ERNS_3MatERKNS_6OptionE.omp_outlined.2(ptr noalias noundef %0, ptr noalias noundef %1, ptr noundef nonnull align 4 dereferenceable(4) %2, ptr noundef nonnull align 8 dereferenceable(72) %3, ptr noundef nonnull align 4 dereferenceable(4) %4) #17 personality ptr @__gxx_personality_v0 {
  %6 = alloca ptr, align 8
  %7 = alloca ptr, align 8
  %8 = alloca ptr, align 8
  %9 = alloca ptr, align 8
  %10 = alloca ptr, align 8
  %11 = alloca ptr, align 8
  %12 = alloca i32, align 4
  %13 = alloca i32, align 4
  %14 = alloca i32, align 4
  %15 = alloca i32, align 4
  %16 = alloca i32, align 4
  %17 = alloca i32, align 4
  %18 = alloca i32, align 4
  %19 = alloca i32, align 4
  %20 = alloca i32, align 4
  %21 = alloca ptr, align 8
  %22 = alloca %"class.ncnn::Mat", align 8
  %23 = alloca i32, align 4
  store ptr %0, ptr %6, align 8, !tbaa !46
  store ptr %1, ptr %7, align 8, !tbaa !46
  store ptr %2, ptr %8, align 8, !tbaa !46
  store ptr %3, ptr %9, align 8, !tbaa !9
  store ptr %4, ptr %10, align 8, !tbaa !46
  %24 = load ptr, ptr %8, align 8, !tbaa !46
  %25 = load ptr, ptr %9, align 8, !tbaa !9
  %26 = load ptr, ptr %10, align 8, !tbaa !46
  store ptr %25, ptr %11, align 8
  call void @llvm.lifetime.start.p0(i64 4, ptr %12) #8
  call void @llvm.lifetime.start.p0(i64 4, ptr %13) #8
  %27 = load i32, ptr %24, align 4, !tbaa !13
  store i32 %27, ptr %13, align 4, !tbaa !13
  call void @llvm.lifetime.start.p0(i64 4, ptr %14) #8
  %28 = load i32, ptr %13, align 4, !tbaa !13
  %29 = sub nsw i32 %28, 0
  %30 = sdiv i32 %29, 1
  %31 = sub nsw i32 %30, 1
  store i32 %31, ptr %14, align 4, !tbaa !13
  call void @llvm.lifetime.start.p0(i64 4, ptr %15) #8
  store i32 0, ptr %15, align 4, !tbaa !13
  call void @llvm.lifetime.end.p0(i64 4, ptr %15) #8
  %32 = load i32, ptr %13, align 4, !tbaa !13
  %33 = icmp slt i32 0, %32
  br i1 %33, label %34, label %88

34:                                               ; preds = %5
  call void @llvm.lifetime.start.p0(i64 4, ptr %16) #8
  store i32 0, ptr %16, align 4, !tbaa !13
  call void @llvm.lifetime.start.p0(i64 4, ptr %17) #8
  %35 = load i32, ptr %14, align 4, !tbaa !13
  store i32 %35, ptr %17, align 4, !tbaa !13
  call void @llvm.lifetime.start.p0(i64 4, ptr %18) #8
  store i32 1, ptr %18, align 4, !tbaa !13
  call void @llvm.lifetime.start.p0(i64 4, ptr %19) #8
  store i32 0, ptr %19, align 4, !tbaa !13
  call void @llvm.lifetime.start.p0(i64 4, ptr %20) #8
  %36 = load ptr, ptr %6, align 8
  %37 = load i32, ptr %36, align 4, !tbaa !13
  call void @__kmpc_for_static_init_4(ptr @1, i32 %37, i32 34, ptr %19, ptr %16, ptr %17, ptr %18, i32 1, i32 1)
  %38 = load i32, ptr %17, align 4, !tbaa !13
  %39 = load i32, ptr %14, align 4, !tbaa !13
  %40 = icmp sgt i32 %38, %39
  br i1 %40, label %41, label %43

41:                                               ; preds = %34
  %42 = load i32, ptr %14, align 4, !tbaa !13
  br label %45

43:                                               ; preds = %34
  %44 = load i32, ptr %17, align 4, !tbaa !13
  br label %45

45:                                               ; preds = %43, %41
  %46 = phi i32 [ %42, %41 ], [ %44, %43 ]
  store i32 %46, ptr %17, align 4, !tbaa !13
  %47 = load i32, ptr %16, align 4, !tbaa !13
  store i32 %47, ptr %12, align 4, !tbaa !13
  br label %48

48:                                               ; preds = %81, %45
  %49 = load i32, ptr %12, align 4, !tbaa !13
  %50 = load i32, ptr %17, align 4, !tbaa !13
  %51 = icmp sle i32 %49, %50
  br i1 %51, label %53, label %52

52:                                               ; preds = %48
  br label %84

53:                                               ; preds = %48
  %54 = load i32, ptr %12, align 4, !tbaa !13
  %55 = mul nsw i32 %54, 1
  %56 = add nsw i32 0, %55
  store i32 %56, ptr %20, align 4, !tbaa !13
  call void @llvm.lifetime.start.p0(i64 8, ptr %21) #8
  call void @llvm.lifetime.start.p0(i64 72, ptr %22) #8
  %57 = load ptr, ptr %11, align 8, !tbaa !9
  %58 = load i32, ptr %20, align 4, !tbaa !13
  invoke void @_ZN4ncnn3Mat7channelEi(ptr dead_on_unwind writable sret(%"class.ncnn::Mat") align 8 %22, ptr noundef nonnull align 8 dereferenceable(72) %57, i32 noundef %58)
          to label %59 unwind label %89

59:                                               ; preds = %53
  %60 = invoke noundef ptr @_ZN4ncnn3MatcvPT_IaEEv(ptr noundef nonnull align 8 dereferenceable(72) %22)
          to label %61 unwind label %89

61:                                               ; preds = %59
  call void @_ZN4ncnn3MatD2Ev(ptr noundef nonnull align 8 dereferenceable(72) %22) #8
  call void @llvm.lifetime.end.p0(i64 72, ptr %22) #8
  store ptr %60, ptr %21, align 8, !tbaa !72
  call void @llvm.lifetime.start.p0(i64 4, ptr %23) #8
  store i32 0, ptr %23, align 4, !tbaa !13
  br label %62

62:                                               ; preds = %76, %61
  %63 = load i32, ptr %23, align 4, !tbaa !13
  %64 = load i32, ptr %26, align 4, !tbaa !13
  %65 = icmp slt i32 %63, %64
  br i1 %65, label %66, label %79

66:                                               ; preds = %62
  %67 = load ptr, ptr %21, align 8, !tbaa !72
  %68 = load i8, ptr %67, align 1, !tbaa !49
  %69 = sext i8 %68 to i32
  %70 = icmp slt i32 %69, 0
  br i1 %70, label %71, label %73

71:                                               ; preds = %66
  %72 = load ptr, ptr %21, align 8, !tbaa !72
  store i8 0, ptr %72, align 1, !tbaa !49
  br label %73

73:                                               ; preds = %71, %66
  %74 = load ptr, ptr %21, align 8, !tbaa !72
  %75 = getelementptr inbounds nuw i8, ptr %74, i32 1
  store ptr %75, ptr %21, align 8, !tbaa !72
  br label %76

76:                                               ; preds = %73
  %77 = load i32, ptr %23, align 4, !tbaa !13
  %78 = add nsw i32 %77, 1
  store i32 %78, ptr %23, align 4, !tbaa !13
  br label %62, !llvm.loop !74

79:                                               ; preds = %62
  call void @llvm.lifetime.end.p0(i64 4, ptr %23) #8
  call void @llvm.lifetime.end.p0(i64 8, ptr %21) #8
  br label %80

80:                                               ; preds = %79
  br label %81

81:                                               ; preds = %80
  %82 = load i32, ptr %12, align 4, !tbaa !13
  %83 = add nsw i32 %82, 1
  store i32 %83, ptr %12, align 4, !tbaa !13
  br label %48

84:                                               ; preds = %52
  br label %85

85:                                               ; preds = %84
  %86 = load ptr, ptr %6, align 8
  %87 = load i32, ptr %86, align 4, !tbaa !13
  call void @__kmpc_for_static_fini(ptr @1, i32 %87)
  call void @llvm.lifetime.end.p0(i64 4, ptr %20) #8
  call void @llvm.lifetime.end.p0(i64 4, ptr %19) #8
  call void @llvm.lifetime.end.p0(i64 4, ptr %18) #8
  call void @llvm.lifetime.end.p0(i64 4, ptr %17) #8
  call void @llvm.lifetime.end.p0(i64 4, ptr %16) #8
  br label %88

88:                                               ; preds = %85, %5
  call void @llvm.lifetime.end.p0(i64 4, ptr %14) #8
  call void @llvm.lifetime.end.p0(i64 4, ptr %13) #8
  call void @llvm.lifetime.end.p0(i64 4, ptr %12) #8
  ret void

89:                                               ; preds = %59, %53
  %90 = landingpad { ptr, i32 }
          catch ptr null
  %91 = extractvalue { ptr, i32 } %90, 0
  call void @__clang_call_terminate(ptr %91) #20
  unreachable
}